Certificate:
    Data:
        Version: 1 (0x0)
        Serial Number: 1 (0x1)
    Signature Algorithm: md5WithRSAEncryption
        Issuer: C=US, ST=CA, O=Open vSwitch, OU=controllerca, CN=OVS controllerca CA Certificate (2013 Apr 16 12:56:50)
        Validity
            Not Before: Apr 16 09:56:51 2013 GMT
            Not After : Apr 16 09:56:51 2019 GMT
        Subject: C=US, ST=CA, O=Open vSwitch, OU=controllerca, CN=OVS controllerca CA Certificate (2013 Apr 16 12:56:50)
        Subject Public Key Info:
            Public Key Algorithm: rsaEncryption
                Public-Key: (2048 bit)
                Modulus:
                    00:b1:8e:4e:d9:04:10:c7:ed:a3:f1:f7:45:3c:58:
                    46:53:9b:7d:f2:de:92:2e:89:5c:76:0d:dd:f9:52:
                    9d:99:74:3d:c0:a5:84:bd:74:7d:46:2c:e9:b8:58:
                    fe:9d:6b:c7:f0:b5:02:59:5d:3d:e7:dd:ff:63:31:
                    29:f2:aa:dd:a5:da:dc:f2:40:dc:c5:40:ed:de:92:
                    a9:b8:5e:13:b3:54:d6:f1:8d:e9:20:82:2e:d7:22:
                    f4:60:61:8a:9d:f2:27:39:45:4b:1b:07:7a:53:39:
                    51:42:61:93:65:d4:b1:9f:cb:c3:f5:fc:7a:2b:ff:
                    84:21:3a:64:83:88:94:ca:7b:ed:f7:64:4d:8b:31:
                    69:aa:45:0e:18:5b:88:c0:9d:a7:ba:23:26:92:b2:
                    cf:eb:79:29:4e:1b:85:ab:b7:03:86:dd:31:39:35:
                    19:ce:55:85:b1:a9:90:41:e0:dc:db:a4:b4:1f:da:
                    1a:35:40:c4:d2:18:25:e6:9f:a1:12:a2:f5:11:e4:
                    b2:8f:19:f7:b6:f3:53:32:29:1e:b4:d1:d5:82:2d:
                    28:18:85:f7:f2:62:24:57:79:a5:df:71:c8:12:a8:
                    48:66:61:83:da:86:1b:f8:23:23:ad:0d:0e:7d:b7:
                    49:45:58:6e:83:8a:39:f0:29:e5:e7:59:3d:f0:a8:
                    56:89
                Exponent: 65537 (0x10001)
    Signature Algorithm: md5WithRSAEncryption
         2a:77:18:8c:b5:c4:85:04:e9:33:64:50:4b:b6:2d:44:6d:fc:
         6f:14:a0:f1:b4:7f:d9:53:ae:3f:60:c7:7b:b0:7c:2a:f7:0b:
         01:0c:0d:f1:70:60:2e:66:27:25:b4:66:67:55:0e:01:c3:01:
         b2:20:4c:50:68:94:99:58:ca:d1:82:e3:92:05:33:42:69:6f:
         92:54:c6:f3:1b:61:e3:a5:33:0e:31:60:07:c6:97:5c:36:a4:
         34:d1:2f:03:04:e7:8b:98:48:43:60:3e:b8:29:ed:13:c9:1d:
         f1:8f:f2:2c:7b:a5:d2:04:c1:e1:bb:c1:71:5e:d0:7e:26:81:
         21:7f:f9:83:d2:47:a0:4c:41:4d:bf:5d:24:b8:1f:59:60:f8:
         d9:cd:0d:73:03:cb:dd:00:6b:db:40:e5:80:7d:18:68:79:ee:
         a0:bd:e5:75:de:e1:11:4d:6f:84:df:05:de:34:7e:b0:aa:de:
         e9:f8:38:2b:00:4e:bf:e2:32:3e:2d:a7:35:f5:2a:6e:ef:6a:
         01:f5:f9:98:91:3f:f9:d1:b3:09:b9:04:01:c4:cb:e1:5f:73:
         5b:45:56:9c:5c:82:88:29:18:e5:07:19:30:da:85:45:fb:8b:
         fd:3e:7d:28:2d:a2:ef:98:ce:12:42:47:da:89:05:2b:9c:7a:
         24:4f:ef:72
-----BEGIN CERTIFICATE-----
MIIDiDCCAnACAQEwDQYJKoZIhvcNAQEEBQAwgYkxCzAJBgNVBAYTAlVTMQswCQYD
VQQIEwJDQTEVMBMGA1UEChMMT3BlbiB2U3dpdGNoMRUwEwYDVQQLEwxjb250cm9s
bGVyY2ExPzA9BgNVBAMTNk9WUyBjb250cm9sbGVyY2EgQ0EgQ2VydGlmaWNhdGUg
KDIwMTMgQXByIDE2IDEyOjU2OjUwKTAeFw0xMzA0MTYwOTU2NTFaFw0xOTA0MTYw
OTU2NTFaMIGJMQswCQYDVQQGEwJVUzELMAkGA1UECBMCQ0ExFTATBgNVBAoTDE9w
ZW4gdlN3aXRjaDEVMBMGA1UECxMMY29udHJvbGxlcmNhMT8wPQYDVQQDEzZPVlMg
Y29udHJvbGxlcmNhIENBIENlcnRpZmljYXRlICgyMDEzIEFwciAxNiAxMjo1Njo1
MCkwggEiMA0GCSqGSIb3DQEBAQUAA4IBDwAwggEKAoIBAQCxjk7ZBBDH7aPx90U8
WEZTm33y3pIuiVx2Dd35Up2ZdD3ApYS9dH1GLOm4WP6da8fwtQJZXT3n3f9jMSny
qt2l2tzyQNzFQO3ekqm4XhOzVNbxjekggi7XIvRgYYqd8ic5RUsbB3pTOVFCYZNl
1LGfy8P1/Hor/4QhOmSDiJTKe+33ZE2LMWmqRQ4YW4jAnae6IyaSss/reSlOG4Wr
twOG3TE5NRnOVYWxqZBB4NzbpLQf2ho1QMTSGCXmn6ESovUR5LKPGfe281MyKR60
0dWCLSgYhffyYiRXeaXfccgSqEhmYYPahhv4IyOtDQ59t0lFWG6DijnwKeXnWT3w
qFaJAgMBAAEwDQYJKoZIhvcNAQEEBQADggEBACp3GIy1xIUE6TNkUEu2LURt/G8U
oPG0f9lTrj9gx3uwfCr3CwEMDfFwYC5mJyW0ZmdVDgHDAbIgTFBolJlYytGC45IF
M0Jpb5JUxvMbYeOlMw4xYAfGl1w2pDTRLwME54uYSENgPrgp7RPJHfGP8ix7pdIE
weG7wXFe0H4mgSF/+YPSR6BMQU2/XSS4H1lg+NnNDXMDy90Aa9tA5YB9GGh57qC9
5XXe4RFNb4TfBd40frCq3un4OCsATr/iMj4tpzX1Km7vagH1+ZiRP/nRswm5BAHE
y+Ffc1tFVpxcgogpGOUHGTDahUX7i/0+fSgtou+YzhJCR9qJBSuceiRP73I=
-----END CERTIFICATE-----
