Certificate:
    Data:
        Version: 1 (0x0)
        Serial Number: 4 (0x4)
    Signature Algorithm: md5WithRSAEncryption
        Issuer: C=US, ST=CA, O=Open vSwitch, OU=controllerca, CN=OVS controllerca CA Certificate (2013 Apr 16 12:56:50)
        Validity
            Not Before: Apr 16 12:16:40 2013 GMT
            Not After : Apr 16 12:16:40 2014 GMT
        Subject: C=US, ST=CA, O=Open vSwitch, OU=Open vSwitch certifier, CN=Open vSwitch certificate for ctl
        Subject Public Key Info:
            Public Key Algorithm: rsaEncryption
                Public-Key: (2048 bit)
                Modulus:
                    00:ba:ca:5a:65:b8:fe:f0:4d:ff:41:93:9d:92:6c:
                    b2:e2:c1:d2:a2:61:de:c9:23:fc:b5:37:e1:f7:3b:
                    11:2b:0d:31:62:9b:53:3a:98:db:57:cb:ad:85:03:
                    c7:0b:9e:43:a3:54:bf:0c:68:60:6f:7b:56:30:9c:
                    44:f8:b6:16:a3:6b:dc:21:f4:14:bc:c3:2b:88:78:
                    42:59:3d:3c:f0:6f:4b:87:fa:d9:45:90:20:ab:fc:
                    fa:94:bf:69:43:17:40:5b:08:a9:f9:19:8c:fb:0c:
                    a7:32:19:43:ce:4b:0a:6c:ef:2c:30:55:c9:3c:f1:
                    6c:10:3b:43:b2:c9:37:db:c7:8d:9a:4a:89:ca:f3:
                    3e:dd:a3:31:3e:56:64:0e:b4:52:a8:db:c0:c6:e3:
                    77:b6:95:db:36:f5:f0:4f:ce:41:dc:0f:c2:fd:a8:
                    8a:3a:94:cc:7a:1a:ed:6c:6a:9c:ad:a9:fd:6b:44:
                    b8:f2:f3:a2:27:1c:5b:7c:aa:5b:6f:36:68:6c:9a:
                    71:a4:c1:74:3a:20:de:46:22:3d:d0:ea:ae:99:9d:
                    31:3c:c7:77:56:39:bc:5c:e1:bb:5b:a6:4e:e4:04:
                    82:93:70:9b:ab:a7:e6:9f:ef:63:eb:e5:1f:40:f8:
                    8b:a6:d7:6f:42:b4:62:e3:b5:0f:28:0a:ac:7a:58:
                    a1:77
                Exponent: 65537 (0x10001)
    Signature Algorithm: md5WithRSAEncryption
         17:9a:f9:c8:93:fd:19:5e:ab:23:07:ed:15:b4:2b:ee:ad:61:
         6d:12:55:c4:52:d3:e8:a7:5f:9f:df:bf:df:60:3a:6e:e1:8f:
         22:6b:08:3a:67:3a:44:da:f5:a3:fa:96:26:b1:94:b6:2f:d1:
         ef:28:b1:d5:1f:be:ab:98:62:50:c4:ca:ab:53:5e:c2:d7:9b:
         2b:da:3c:70:0a:b4:e0:1c:d7:8d:b9:80:d1:10:fb:db:77:98:
         88:be:10:8d:26:7f:c5:57:0d:e6:c5:3c:76:ab:b1:a3:22:67:
         7a:6d:4d:f5:16:be:55:2b:31:34:0d:fb:98:ac:a3:14:de:e8:
         5e:ef:71:fc:b4:33:a1:5e:cf:10:47:3d:2b:a2:73:0a:f0:37:
         7a:bd:70:ee:e3:89:93:d7:59:d0:3b:d2:3c:23:12:7f:30:5d:
         fa:1a:eb:7b:d3:fd:e0:6c:0d:4a:95:13:95:b1:33:02:9d:df:
         74:32:d9:c4:6c:22:02:21:91:af:70:86:53:16:68:30:fc:07:
         bf:aa:61:61:da:cf:44:5c:9e:19:e4:9b:90:1d:e2:61:1d:5f:
         6f:47:78:7e:c3:1c:ff:af:f6:6e:44:dd:77:73:2e:6f:0b:1e:
         a7:ca:08:08:1f:3d:f4:7a:89:12:7a:4d:82:33:03:3e:5a:76:
         90:3f:e1:07
-----BEGIN CERTIFICATE-----
MIIDezCCAmMCAQQwDQYJKoZIhvcNAQEEBQAwgYkxCzAJBgNVBAYTAlVTMQswCQYD
VQQIEwJDQTEVMBMGA1UEChMMT3BlbiB2U3dpdGNoMRUwEwYDVQQLEwxjb250cm9s
bGVyY2ExPzA9BgNVBAMTNk9WUyBjb250cm9sbGVyY2EgQ0EgQ2VydGlmaWNhdGUg
KDIwMTMgQXByIDE2IDEyOjU2OjUwKTAeFw0xMzA0MTYxMjE2NDBaFw0xNDA0MTYx
MjE2NDBaMH0xCzAJBgNVBAYTAlVTMQswCQYDVQQIEwJDQTEVMBMGA1UEChMMT3Bl
biB2U3dpdGNoMR8wHQYDVQQLExZPcGVuIHZTd2l0Y2ggY2VydGlmaWVyMSkwJwYD
VQQDEyBPcGVuIHZTd2l0Y2ggY2VydGlmaWNhdGUgZm9yIGN0bDCCASIwDQYJKoZI
hvcNAQEBBQADggEPADCCAQoCggEBALrKWmW4/vBN/0GTnZJssuLB0qJh3skj/LU3
4fc7ESsNMWKbUzqY21fLrYUDxwueQ6NUvwxoYG97VjCcRPi2FqNr3CH0FLzDK4h4
Qlk9PPBvS4f62UWQIKv8+pS/aUMXQFsIqfkZjPsMpzIZQ85LCmzvLDBVyTzxbBA7
Q7LJN9vHjZpKicrzPt2jMT5WZA60UqjbwMbjd7aV2zb18E/OQdwPwv2oijqUzHoa
7WxqnK2p/WtEuPLzoiccW3yqW282aGyacaTBdDog3kYiPdDqrpmdMTzHd1Y5vFzh
u1umTuQEgpNwm6un5p/vY+vlH0D4i6bXb0K0YuO1DygKrHpYoXcCAwEAATANBgkq
hkiG9w0BAQQFAAOCAQEAF5r5yJP9GV6rIwftFbQr7q1hbRJVxFLT6Kdfn9+/32A6
buGPImsIOmc6RNr1o/qWJrGUti/R7yix1R++q5hiUMTKq1NewtebK9o8cAq04BzX
jbmA0RD723eYiL4QjSZ/xVcN5sU8dquxoyJnem1N9Ra+VSsxNA37mKyjFN7oXu9x
/LQzoV7PEEc9K6JzCvA3er1w7uOJk9dZ0DvSPCMSfzBd+hrre9P94GwNSpUTlbEz
Ap3fdDLZxGwiAiGRr3CGUxZoMPwHv6phYdrPRFyeGeSbkB3iYR1fb0d4fsMc/6/2
bkTdd3Mubwsep8oICB899HqJEnpNgjMDPlp2kD/hBw==
-----END CERTIFICATE-----
